; Function Attrs: mustprogress null_pointer_is_valid sspstrong uwtable
define void @_ZN11ExtArgRadio5valueEv(ptr dead_on_unwind noalias writable writeonly sret(%class.QString) align 8 captures(none) initializes((0, 24)) %0, ptr noundef readonly align 8 captures(none) dereferenceable_or_null(104) %1) unnamed_addr #0 align 2 personality ptr @__gxx_personality_v0 {
  %3 = getelementptr inbounds nuw i8, ptr %1, i64 88
  %4 = load ptr, ptr %3, align 8
  %5 = icmp eq ptr %4, null
  br i1 %5, label %10, label %6

6:                                                ; preds = %2
  %7 = getelementptr inbounds nuw i8, ptr %1, i64 96
  %8 = load ptr, ptr %7, align 8
  %9 = icmp eq ptr %8, null
  br i1 %9, label %10, label %11

10:                                               ; preds = %6, %2
  tail call void @llvm.memset.p0.i64(ptr noundef align 8 dereferenceable(24) dereferenceable_or_null(24) %0, i8 0, i64 24, i1 false)
  br label %_ZN7QStringC2ERKS_.exit

11:                                               ; preds = %6
  %12 = tail call noundef i32 @_ZNK12QButtonGroup9checkedIdEv(ptr noundef nonnull align 8 dereferenceable_or_null(16) %4)
  %13 = icmp sgt i32 %12, -1
  br i1 %13, label %14, label %33

14:                                               ; preds = %11
  %15 = load ptr, ptr %7, align 8
  %16 = getelementptr inbounds nuw i8, ptr %15, i64 16
  %17 = load i64, ptr %16, align 8
  %18 = zext nneg i32 %12 to i64
  %19 = icmp sgt i64 %17, %18
  br i1 %19, label %20, label %33

20:                                               ; preds = %14
  %21 = getelementptr inbounds nuw i8, ptr %15, i64 8
  %22 = load ptr, ptr %21, align 8
  %23 = getelementptr %class.QString, ptr %22, i64 %18
  %24 = load ptr, ptr %23, align 8
  store ptr %24, ptr %0, align 8
  %25 = getelementptr inbounds nuw i8, ptr %0, i64 8
  %26 = getelementptr inbounds nuw i8, ptr %23, i64 8
  %27 = load ptr, ptr %26, align 8
  store ptr %27, ptr %25, align 8
  %28 = getelementptr inbounds nuw i8, ptr %0, i64 16
  %29 = getelementptr inbounds nuw i8, ptr %23, i64 16
  %30 = load i64, ptr %29, align 8
  store i64 %30, ptr %28, align 8
  %.not.i.i.i = icmp eq ptr %24, null
  br i1 %.not.i.i.i, label %_ZN7QStringC2ERKS_.exit, label %31

31:                                               ; preds = %20
  %32 = atomicrmw add ptr %24, i32 1 seq_cst, align 4
  br label %_ZN7QStringC2ERKS_.exit

33:                                               ; preds = %14, %11
  tail call void @llvm.memset.p0.i64(ptr noundef align 8 dereferenceable(24) dereferenceable_or_null(24) %0, i8 0, i64 24, i1 false)
  br label %_ZN7QStringC2ERKS_.exit

_ZN7QStringC2ERKS_.exit:                          ; preds = %31, %20, %33, %10
  ret void
}